Certificate:
    Data:
        Version: 3 (0x2)
        Serial Number: 1 (0x1)
    Signature Algorithm: sha256WithRSAEncryption
        Issuer: C=yl, ST=yl, L=yly, O=yl, OU=yl, CN=yl/emailAddress=yl@qq.com
        Validity
            Not Before: Feb 23 04:09:05 2017 GMT
            Not After : Feb 23 04:09:05 2018 GMT
        Subject: C=yl, ST=yl, O=yl, OU=yl, CN=yl/emailAddress=yl@qq.com
        Subject Public Key Info:
            Public Key Algorithm: rsaEncryption
                Public-Key: (4096 bit)
                Modulus:
                    00:de:36:e1:93:5f:aa:18:92:62:1e:75:37:25:26:
                    a5:26:66:f8:20:d2:00:38:af:a3:bb:b9:12:77:2e:
                    ae:90:08:22:4b:80:7b:53:a7:12:b1:82:26:a2:52:
                    c9:88:2a:10:a1:06:7b:f9:27:21:63:29:aa:8e:4c:
                    cd:bc:a3:2c:f1:c2:28:d9:e1:87:33:01:66:1a:9c:
                    8c:37:fc:cc:c2:29:0d:eb:a6:cb:b8:de:c0:12:de:
                    5c:4d:01:8b:e3:81:4b:b2:f8:a4:a2:1c:9a:79:49:
                    c2:39:5c:61:f4:3b:db:24:f0:21:b7:c0:41:aa:e4:
                    46:06:51:74:0b:2d:1b:d0:e6:6c:c8:86:90:7f:75:
                    f7:fa:c3:9f:98:61:f4:51:fe:19:d7:94:96:19:a9:
                    65:de:7a:f9:7d:e8:a6:65:df:98:3f:3d:b6:1f:66:
                    3d:ce:bd:a0:79:6d:e0:40:6f:ce:fb:71:75:51:dc:
                    0a:86:5a:2d:6a:7b:8d:4c:31:2d:4f:73:1e:3f:70:
                    f1:1e:30:c0:9a:e5:b0:e3:d9:37:98:77:25:34:91:
                    83:97:ae:8a:73:d9:99:fd:d3:a5:98:ce:cd:76:33:
                    1e:44:bd:06:48:22:88:2f:20:42:45:2e:7a:a4:4b:
                    72:de:02:92:39:a1:f4:e4:bd:d9:f9:7a:53:c5:1f:
                    46:fb:04:dc:c6:d1:65:fc:2a:9f:90:9f:5b:a7:37:
                    f0:0a:d4:84:f9:e3:ba:d1:e2:13:e9:1a:14:01:9e:
                    09:c2:bd:62:9e:10:92:7a:1e:5a:87:0b:09:3a:07:
                    b6:71:fe:61:72:ae:38:12:d8:d0:a6:7e:2d:c9:fd:
                    f3:d3:dc:5a:f4:d6:cd:80:b1:17:4e:7c:6e:98:4b:
                    91:de:d6:6d:3f:8e:7e:aa:0a:95:f9:ff:09:7a:b9:
                    f3:74:65:aa:a0:0b:ed:a8:a7:a1:f7:9f:6a:24:7f:
                    27:30:59:29:df:cf:f6:2e:80:2f:30:39:17:81:00:
                    28:ba:93:3f:b1:64:83:6b:5c:1e:6a:4e:82:fc:ba:
                    3a:9a:ee:6e:6e:95:b4:5a:34:fa:12:f4:66:8f:83:
                    72:f5:f3:ea:8c:c5:f0:f4:71:21:a5:68:b4:12:82:
                    d1:b0:88:eb:60:02:65:63:e5:f2:ea:0c:e8:d9:25:
                    8d:fe:d9:35:72:25:eb:68:3f:20:13:32:4b:aa:9e:
                    d5:70:c1:aa:e2:18:dd:43:3f:77:6a:00:8d:ec:7b:
                    23:ab:0f:30:a2:ff:a6:39:75:c0:18:3a:95:8f:be:
                    1d:32:50:3c:de:fb:0f:2b:b7:0d:5f:2f:55:70:c1:
                    f3:a7:28:ba:b5:45:60:20:ee:89:03:7d:c0:88:c4:
                    96:fe:3f
                Exponent: 65537 (0x10001)
        X509v3 extensions:
            X509v3 Subject Alternative Name: 
                IP Address:10.10.101.99
    Signature Algorithm: sha256WithRSAEncryption
         36:29:b1:de:df:07:f4:8f:bf:22:b8:d3:e7:8a:04:17:87:70:
         d2:d8:ab:1e:b7:31:50:dc:b4:3c:49:5b:a7:35:77:9c:46:64:
         cd:41:42:f8:3f:66:c4:53:8f:5f:66:97:ce:7a:ae:45:8e:b9:
         49:4d:9d:14:ea:73:c1:ab:f3:d2:7d:62:00:51:ef:74:ff:72:
         71:4b:30:9d:e2:0b:20:40:4e:5b:4f:5b:78:5c:a0:3e:dd:75:
         aa:1f:d7:16:0b:39:5b:44:7c:17:94:a0:3e:98:75:d8:12:db:
         44:4b:dd:56:07:4f:46:1b:ef:54:c8:89:52:6f:c3:d0:58:5f:
         8a:af:b9:e0:35:aa:b9:04:3a:64:58:25:34:ca:e7:27:55:70:
         ac:c7:3e:49:96:fe:ab:b0:8a:7f:5d:13:d7:78:0d:d6:7c:e0:
         aa:d2:71:dc:64:32:21:ff:99:f0:bb:bd:fe:39:45:05:34:05:
         59:55:86:d5:eb:d8:ca:80:d3:33:ba:95:30:67:b2:b2:32:be:
         64:f7:cf:99:b7:7a:01:23:4d:e6:6f:eb:90:5f:81:32:eb:dc:
         d6:d9:89:60:38:76:9f:ec:82:79:0d:b7:99:92:bf:10:3d:cf:
         99:84:1d:56:31:7e:27:f6:4a:69:0f:ce:45:a9:8d:c7:a5:66:
         c7:7e:86:66:e0:7a:e4:08:fa:58:49:ed:dd:67:1b:c1:b8:6f:
         5e:d1:ae:30:34:1e:88:94:ce:ed:cc:a3:73:fd:20:41:83:21:
         e9:54:58:c9:ea:c1:21:75:9f:2e:a4:e8:98:0f:d0:b5:59:c2:
         cc:61:c8:5d:e7:58:81:4d:20:cc:e4:a4:e1:df:2a:39:d7:b7:
         17:57:55:f7:a7:ba:67:24:08:29:d4:e9:c4:8e:59:5c:94:56:
         ef:fa:51:e4:e1:ad:57:e7:6e:80:96:e6:51:57:3f:8c:88:8c:
         42:83:f2:9f:c6:c4:7a:03:62:74:3f:49:a7:0a:e2:48:63:60:
         4d:2c:5e:43:7c:50:cd:53:cc:37:6c:37:d7:29:82:b2:fb:cd:
         98:f1:78:8a:9a:41:b0:d1:c4:b4:40:9b:83:11:46:59:f4:02:
         54:f1:e5:0f:30:6c:62:af:67:96:17:e4:79:8a:dd:89:18:18:
         ad:fd:5a:5a:b2:49:30:37:61:d8:f8:a6:17:ec:06:26:16:2e:
         c9:bc:28:d7:54:5b:3e:ef:1f:1b:c9:3c:a0:6a:ec:2a:96:23:
         96:12:59:ff:2c:1a:ff:8d:34:5d:0c:dc:16:be:cd:ca:99:a7:
         48:2f:ba:90:23:84:53:19:66:5a:19:0a:a7:b7:86:32:4f:53:
         0a:08:20:84:8e:6c:14:69
-----BEGIN CERTIFICATE-----
MIIFUjCCAzqgAwIBAgIBATANBgkqhkiG9w0BAQsFADBpMQswCQYDVQQGEwJ5bDEL
MAkGA1UECAwCeWwxDDAKBgNVBAcMA3lseTELMAkGA1UECgwCeWwxCzAJBgNVBAsM
AnlsMQswCQYDVQQDDAJ5bDEYMBYGCSqGSIb3DQEJARYJeWxAcXEuY29tMB4XDTE3
MDIyMzA0MDkwNVoXDTE4MDIyMzA0MDkwNVowWzELMAkGA1UEBhMCeWwxCzAJBgNV
BAgMAnlsMQswCQYDVQQKDAJ5bDELMAkGA1UECwwCeWwxCzAJBgNVBAMMAnlsMRgw
FgYJKoZIhvcNAQkBFgl5bEBxcS5jb20wggIiMA0GCSqGSIb3DQEBAQUAA4ICDwAw
ggIKAoICAQDeNuGTX6oYkmIedTclJqUmZvgg0gA4r6O7uRJ3Lq6QCCJLgHtTpxKx
giaiUsmIKhChBnv5JyFjKaqOTM28oyzxwijZ4YczAWYanIw3/MzCKQ3rpsu43sAS
3lxNAYvjgUuy+KSiHJp5ScI5XGH0O9sk8CG3wEGq5EYGUXQLLRvQ5mzIhpB/dff6
w5+YYfRR/hnXlJYZqWXeevl96KZl35g/PbYfZj3OvaB5beBAb877cXVR3AqGWi1q
e41MMS1Pcx4/cPEeMMCa5bDj2TeYdyU0kYOXropz2Zn906WYzs12Mx5EvQZIIogv
IEJFLnqkS3LeApI5ofTkvdn5elPFH0b7BNzG0WX8Kp+Qn1unN/AK1IT547rR4hPp
GhQBngnCvWKeEJJ6HlqHCwk6B7Zx/mFyrjgS2NCmfi3J/fPT3Fr01s2AsRdOfG6Y
S5He1m0/jn6qCpX5/wl6ufN0ZaqgC+2op6H3n2okfycwWSnfz/YugC8wOReBACi6
kz+xZINrXB5qToL8ujqa7m5ulbRaNPoS9GaPg3L18+qMxfD0cSGlaLQSgtGwiOtg
AmVj5fLqDOjZJY3+2TVyJetoPyATMkuqntVwwariGN1DP3dqAI3seyOrDzCi/6Y5
dcAYOpWPvh0yUDze+w8rtw1fL1VwwfOnKLq1RWAg7okDfcCIxJb+PwIDAQABoxMw
ETAPBgNVHREECDAGhwQKCmVjMA0GCSqGSIb3DQEBCwUAA4ICAQA2KbHe3wf0j78i
uNPnigQXh3DS2KsetzFQ3LQ8SVunNXecRmTNQUL4P2bEU49fZpfOeq5FjrlJTZ0U
6nPBq/PSfWIAUe90/3JxSzCd4gsgQE5bT1t4XKA+3XWqH9cWCzlbRHwXlKA+mHXY
EttES91WB09GG+9UyIlSb8PQWF+Kr7ngNaq5BDpkWCU0yucnVXCsxz5Jlv6rsIp/
XRPXeA3WfOCq0nHcZDIh/5nwu73+OUUFNAVZVYbV69jKgNMzupUwZ7KyMr5k98+Z
t3oBI03mb+uQX4Ey69zW2YlgOHaf7IJ5DbeZkr8QPc+ZhB1WMX4n9kppD85FqY3H
pWbHfoZm4HrkCPpYSe3dZxvBuG9e0a4wNB6IlM7tzKNz/SBBgyHpVFjJ6sEhdZ8u
pOiYD9C1WcLMYchd51iBTSDM5KTh3yo517cXV1X3p7pnJAgp1OnEjllclFbv+lHk
4a1X526AluZRVz+MiIxCg/KfxsR6A2J0P0mnCuJIY2BNLF5DfFDNU8w3bDfXKYKy
+82Y8XiKmkGw0cS0QJuDEUZZ9AJU8eUPMGxir2eWF+R5it2JGBit/VpaskkwN2HY
+KYX7AYmFi7JvCjXVFs+7x8byTygauwqliOWEln/LBr/jTRdDNwWvs3KmadIL7qQ
I4RTGWZaGQqnt4YyT1MKCCCEjmwUaQ==
-----END CERTIFICATE-----
